; Function Attrs: mustprogress nounwind uwtable
define hidden void @_ZN6Invoke15state_values_doEP12ValueVisitor(ptr nocapture noundef nonnull readonly align 8 dereferenceable(144) %0, ptr noundef %1) unnamed_addr #1 align 2 {
  %3 = getelementptr inbounds i8, ptr %0, i64 64
  %4 = load ptr, ptr %3, align 8
  %.not.i.i = icmp eq ptr %4, null
  br i1 %.not.i.i, label %6, label %5

5:                                                ; preds = %2
  tail call void @_ZN10ValueStack9values_doEP12ValueVisitor(ptr noundef nonnull align 8 dereferenceable(81) %4, ptr noundef %1) #13
  br label %6

6:                                                ; preds = %5, %2
  %7 = getelementptr inbounds i8, ptr %0, i64 72
  %8 = load ptr, ptr %7, align 8
  %.not3.i.i = icmp eq ptr %8, null
  br i1 %.not3.i.i, label %_ZN11Instruction15state_values_doEP12ValueVisitor.exit.i, label %9

9:                                                ; preds = %6
  tail call void @_ZN10ValueStack9values_doEP12ValueVisitor(ptr noundef nonnull align 8 dereferenceable(81) %8, ptr noundef %1) #13
  br label %_ZN11Instruction15state_values_doEP12ValueVisitor.exit.i

_ZN11Instruction15state_values_doEP12ValueVisitor.exit.i: ; preds = %9, %6
  %10 = getelementptr inbounds i8, ptr %0, i64 96
  %11 = load ptr, ptr %10, align 8
  %.not.i = icmp eq ptr %11, null
  br i1 %.not.i, label %_ZN10StateSplit15state_values_doEP12ValueVisitor.exit, label %12

12:                                               ; preds = %_ZN11Instruction15state_values_doEP12ValueVisitor.exit.i
  tail call void @_ZN10ValueStack9values_doEP12ValueVisitor(ptr noundef nonnull align 8 dereferenceable(81) %11, ptr noundef %1) #13
  br label %_ZN10StateSplit15state_values_doEP12ValueVisitor.exit

_ZN10StateSplit15state_values_doEP12ValueVisitor.exit: ; preds = %_ZN11Instruction15state_values_doEP12ValueVisitor.exit.i, %12
  %13 = load ptr, ptr %3, align 8
  %.not = icmp eq ptr %13, null
  br i1 %.not, label %15, label %14

14:                                               ; preds = %_ZN10StateSplit15state_values_doEP12ValueVisitor.exit
  tail call void @_ZN10ValueStack9values_doEP12ValueVisitor(ptr noundef nonnull align 8 dereferenceable(81) %13, ptr noundef %1) #13
  br label %15

15:                                               ; preds = %14, %_ZN10StateSplit15state_values_doEP12ValueVisitor.exit
  %16 = load ptr, ptr %10, align 8
  %.not4 = icmp eq ptr %16, null
  br i1 %.not4, label %18, label %17

17:                                               ; preds = %15
  tail call void @_ZN10ValueStack9values_doEP12ValueVisitor(ptr noundef nonnull align 8 dereferenceable(81) %16, ptr noundef %1) #13
  br label %18

18:                                               ; preds = %17, %15
  ret void
}